target datalayout = "e-m:e-p270:32:32-p271:32:32-p272:64:64-i64:64-i128:128-f80:128-n8:16:32:64-S128"
target triple = "x86_64-pc-linux-gnu"

%struct.H5C_t = type { i8, ptr, ptr, i32, ptr, i64, i64, ptr, i8, ptr, i8, i8, i32, i64, [6 x i32], [6 x i64], i64, [6 x i64], i64, [6 x i64], [65536 x ptr], i32, i64, ptr, ptr, i64, ptr, ptr, i8, i8, i32, i64, [6 x i32], [6 x i64], ptr, i32, ptr, i8, i32, i32, i64, ptr, ptr, i32, i64, ptr, ptr, i32, i64, ptr, ptr, i8, i8, i64, i8, i8, i8, i8, i8, i8, %struct.H5C_auto_size_ctl_t, i32, [10 x i8], [11 x i32], i32, i32, i32, [10 x %struct.H5C_cache_entry_t], i64, i64, %struct.H5C_cache_image_ctl_t, i8, i8, i8, i8, i64, i64, i64, i64, i64, i64, i64, i32, ptr, ptr, i8, i8, [32 x i8] }
%struct.H5C_auto_size_ctl_t = type { i32, ptr, i8, i64, double, i64, i64, i64, i32, double, double, i8, i64, i32, double, double, i32, double, double, i8, i64, i32, i8, double }
%struct.H5C_cache_entry_t = type { ptr, i64, i64, ptr, i8, ptr, i8, i8, i8, i8, i32, i8, i8, i8, i8, i8, i32, ptr, i32, i32, i32, i32, i32, i8, i8, ptr, ptr, ptr, ptr, ptr, ptr, i8, i32, i8, i64, ptr, i64, i64, i32, i8, i32, i32, i8, ptr, ptr, ptr }
%struct.H5C_cache_image_ctl_t = type { i32, i8, i8, i32, i32 }

@H5C_init_g = external global i8, align 1
@H5_libterm_g = external global i8, align 1
@.str = private unnamed_addr constant [100 x i8] c"generated/home/dtcxzyw/WorkSpace/Projects/compilers/llvm-opt-benchmark/bench/hdf5/hdf5/src/H5Cint.c\00", align 1
@H5E_CACHE_g = external global i64, align 8
@H5E_SYSTEM_g = external global i64, align 8
@.str.29 = private unnamed_addr constant [21 x i8] c"ring buffer overflow\00", align 1
@__func__.H5C__autoadjust__ageout__insert_new_marker = private unnamed_addr constant [43 x i8] c"H5C__autoadjust__ageout__insert_new_marker\00", align 1
@.str.30 = private unnamed_addr constant [42 x i8] c"Already have a full complement of markers\00", align 1
@.str.31 = private unnamed_addr constant [25 x i8] c"Can't find unused marker\00", align 1

; Function Attrs: nounwind uwtable
define internal i32 @H5C__autoadjust__ageout__insert_new_marker(ptr noundef %0) #0 {
  %2 = alloca ptr, align 8
  %3 = alloca i32, align 4
  %4 = alloca i32, align 4
  %5 = alloca i8, align 1
  store ptr %0, ptr %2, align 8, !tbaa !38
  call void @llvm.lifetime.start.p0(i64 4, ptr %3) #4
  call void @llvm.lifetime.start.p0(i64 4, ptr %4) #4
  store i32 0, ptr %4, align 4, !tbaa !40
  call void @llvm.lifetime.start.p0(i64 1, ptr %5) #4
  store i8 0, ptr %5, align 1, !tbaa !8
  %6 = load i8, ptr @H5C_init_g, align 1, !tbaa !8, !range !41, !noundef !42
  %7 = trunc i8 %6 to i1
  br i1 %7, label %12, label %8

8:                                                ; preds = %1
  %9 = load i8, ptr @H5_libterm_g, align 1, !tbaa !8, !range !41, !noundef !42
  %10 = trunc i8 %9 to i1
  %11 = xor i1 %10, true
  br label %12

12:                                               ; preds = %8, %1
  %13 = phi i1 [ true, %1 ], [ %11, %8 ]
  %14 = xor i1 %13, true
  %15 = xor i1 %14, true
  %16 = zext i1 %15 to i32
  %17 = sext i32 %16 to i64
  %18 = call i64 @llvm.expect.i64(i64 %17, i64 1)
  %19 = icmp ne i64 %18, 0
  br i1 %19, label %20, label %202

20:                                               ; preds = %12
  %21 = load ptr, ptr %2, align 8, !tbaa !38
  %22 = getelementptr inbounds nuw %struct.H5C_t, ptr %21, i32 0, i32 61
  %23 = load i32, ptr %22, align 8, !tbaa !64
  %24 = load ptr, ptr %2, align 8, !tbaa !38
  %25 = getelementptr inbounds nuw %struct.H5C_t, ptr %24, i32 0, i32 60
  %26 = getelementptr inbounds nuw %struct.H5C_auto_size_ctl_t, ptr %25, i32 0, i32 21
  %27 = load i32, ptr %26, align 8, !tbaa !65
  %28 = icmp sge i32 %23, %27
  br i1 %28, label %29, label %48

29:                                               ; preds = %20
  br label %30

30:                                               ; preds = %29
  br label %31

31:                                               ; preds = %30
  br label %32

32:                                               ; preds = %31
  %33 = load i64, ptr @H5E_CACHE_g, align 8, !tbaa !39
  %34 = load i64, ptr @H5E_SYSTEM_g, align 8, !tbaa !39
  %35 = call i32 (ptr, ptr, i32, i64, i64, ptr, ...) @H5E_printf_stack(ptr noundef @.str, ptr noundef @__func__.H5C__autoadjust__ageout__insert_new_marker, i32 noundef 688, i64 noundef %33, i64 noundef %34, ptr noundef @.str.30)
  br label %36

36:                                               ; preds = %32
  br label %37

37:                                               ; preds = %36
  store i8 1, ptr %5, align 1, !tbaa !8
  %38 = load i8, ptr %5, align 1, !tbaa !8, !range !41, !noundef !42
  %39 = trunc i8 %38 to i1
  %40 = zext i1 %39 to i8
  store i8 %40, ptr %5, align 1, !tbaa !8
  br label %41

41:                                               ; preds = %37
  br label %42

42:                                               ; preds = %41
  br label %43

43:                                               ; preds = %42
  store i32 -1, ptr %4, align 4, !tbaa !40
  br label %201

44:                                               ; No predecessors!
  br label %45

45:                                               ; preds = %44
  br label %46

46:                                               ; preds = %45
  br label %47

47:                                               ; preds = %46
  br label %48

48:                                               ; preds = %47, %20
  store i32 0, ptr %3, align 4, !tbaa !40
  br label %49

49:                                               ; preds = %62, %48
  %50 = load ptr, ptr %2, align 8, !tbaa !38
  %51 = getelementptr inbounds nuw %struct.H5C_t, ptr %50, i32 0, i32 62
  %52 = load i32, ptr %3, align 4, !tbaa !40
  %53 = sext i32 %52 to i64
  %54 = getelementptr inbounds [10 x i8], ptr %51, i64 0, i64 %53
  %55 = load i8, ptr %54, align 1, !tbaa !8, !range !41, !noundef !42
  %56 = trunc i8 %55 to i1
  br i1 %56, label %57, label %60

57:                                               ; preds = %49
  %58 = load i32, ptr %3, align 4, !tbaa !40
  %59 = icmp slt i32 %58, 10
  br label %60

60:                                               ; preds = %57, %49
  %61 = phi i1 [ false, %49 ], [ %59, %57 ]
  br i1 %61, label %62, label %65

62:                                               ; preds = %60
  %63 = load i32, ptr %3, align 4, !tbaa !40
  %64 = add nsw i32 %63, 1
  store i32 %64, ptr %3, align 4, !tbaa !40
  br label %49, !llvm.loop !80

65:                                               ; preds = %60
  %66 = load i32, ptr %3, align 4, !tbaa !40
  %67 = icmp sge i32 %66, 10
  br i1 %67, label %68, label %87

68:                                               ; preds = %65
  br label %69

69:                                               ; preds = %68
  br label %70

70:                                               ; preds = %69
  br label %71

71:                                               ; preds = %70
  %72 = load i64, ptr @H5E_CACHE_g, align 8, !tbaa !39
  %73 = load i64, ptr @H5E_SYSTEM_g, align 8, !tbaa !39
  %74 = call i32 (ptr, ptr, i32, i64, i64, ptr, ...) @H5E_printf_stack(ptr noundef @.str, ptr noundef @__func__.H5C__autoadjust__ageout__insert_new_marker, i32 noundef 695, i64 noundef %72, i64 noundef %73, ptr noundef @.str.31)
  br label %75

75:                                               ; preds = %71
  br label %76

76:                                               ; preds = %75
  store i8 1, ptr %5, align 1, !tbaa !8
  %77 = load i8, ptr %5, align 1, !tbaa !8, !range !41, !noundef !42
  %78 = trunc i8 %77 to i1
  %79 = zext i1 %78 to i8
  store i8 %79, ptr %5, align 1, !tbaa !8
  br label %80

80:                                               ; preds = %76
  br label %81

81:                                               ; preds = %80
  br label %82

82:                                               ; preds = %81
  store i32 -1, ptr %4, align 4, !tbaa !40
  br label %201

83:                                               ; No predecessors!
  br label %84

84:                                               ; preds = %83
  br label %85

85:                                               ; preds = %84
  br label %86

86:                                               ; preds = %85
  br label %87

87:                                               ; preds = %86, %65
  %88 = load ptr, ptr %2, align 8, !tbaa !38
  %89 = getelementptr inbounds nuw %struct.H5C_t, ptr %88, i32 0, i32 62
  %90 = load i32, ptr %3, align 4, !tbaa !40
  %91 = sext i32 %90 to i64
  %92 = getelementptr inbounds [10 x i8], ptr %89, i64 0, i64 %91
  store i8 1, ptr %92, align 1, !tbaa !8
  %93 = load ptr, ptr %2, align 8, !tbaa !38
  %94 = getelementptr inbounds nuw %struct.H5C_t, ptr %93, i32 0, i32 65
  %95 = load i32, ptr %94, align 8, !tbaa !82
  %96 = add nsw i32 %95, 1
  %97 = srem i32 %96, 11
  %98 = load ptr, ptr %2, align 8, !tbaa !38
  %99 = getelementptr inbounds nuw %struct.H5C_t, ptr %98, i32 0, i32 65
  store i32 %97, ptr %99, align 8, !tbaa !82
  %100 = load i32, ptr %3, align 4, !tbaa !40
  %101 = load ptr, ptr %2, align 8, !tbaa !38
  %102 = getelementptr inbounds nuw %struct.H5C_t, ptr %101, i32 0, i32 63
  %103 = load ptr, ptr %2, align 8, !tbaa !38
  %104 = getelementptr inbounds nuw %struct.H5C_t, ptr %103, i32 0, i32 65
  %105 = load i32, ptr %104, align 8, !tbaa !82
  %106 = sext i32 %105 to i64
  %107 = getelementptr inbounds [11 x i32], ptr %102, i64 0, i64 %106
  store i32 %100, ptr %107, align 4, !tbaa !40
  %108 = load ptr, ptr %2, align 8, !tbaa !38
  %109 = getelementptr inbounds nuw %struct.H5C_t, ptr %108, i32 0, i32 66
  %110 = load i32, ptr %109, align 4, !tbaa !83
  %111 = icmp sge i32 %110, 10
  br i1 %111, label %112, label %131

112:                                              ; preds = %87
  br label %113

113:                                              ; preds = %112
  br label %114

114:                                              ; preds = %113
  br label %115

115:                                              ; preds = %114
  %116 = load i64, ptr @H5E_CACHE_g, align 8, !tbaa !39
  %117 = load i64, ptr @H5E_SYSTEM_g, align 8, !tbaa !39
  %118 = call i32 (ptr, ptr, i32, i64, i64, ptr, ...) @H5E_printf_stack(ptr noundef @.str, ptr noundef @__func__.H5C__autoadjust__ageout__insert_new_marker, i32 noundef 707, i64 noundef %116, i64 noundef %117, ptr noundef @.str.29)
  br label %119

119:                                              ; preds = %115
  br label %120

120:                                              ; preds = %119
  store i8 1, ptr %5, align 1, !tbaa !8
  %121 = load i8, ptr %5, align 1, !tbaa !8, !range !41, !noundef !42
  %122 = trunc i8 %121 to i1
  %123 = zext i1 %122 to i8
  store i8 %123, ptr %5, align 1, !tbaa !8
  br label %124

124:                                              ; preds = %120
  br label %125

125:                                              ; preds = %124
  br label %126

126:                                              ; preds = %125
  store i32 -1, ptr %4, align 4, !tbaa !40
  br label %201

127:                                              ; No predecessors!
  br label %128

128:                                              ; preds = %127
  br label %129

129:                                              ; preds = %128
  br label %130

130:                                              ; preds = %129
  br label %131

131:                                              ; preds = %130, %87
  %132 = load ptr, ptr %2, align 8, !tbaa !38
  %133 = getelementptr inbounds nuw %struct.H5C_t, ptr %132, i32 0, i32 66
  %134 = load i32, ptr %133, align 4, !tbaa !83
  %135 = add nsw i32 %134, 1
  store i32 %135, ptr %133, align 4, !tbaa !83
  %136 = load ptr, ptr %2, align 8, !tbaa !38
  %137 = getelementptr inbounds nuw %struct.H5C_t, ptr %136, i32 0, i32 49
  %138 = load ptr, ptr %137, align 8, !tbaa !84
  %139 = icmp eq ptr %138, null
  br i1 %139, label %140, label %155

140:                                              ; preds = %131
  %141 = load ptr, ptr %2, align 8, !tbaa !38
  %142 = getelementptr inbounds nuw %struct.H5C_t, ptr %141, i32 0, i32 67
  %143 = load i32, ptr %3, align 4, !tbaa !40
  %144 = sext i32 %143 to i64
  %145 = getelementptr inbounds [10 x %struct.H5C_cache_entry_t], ptr %142, i64 0, i64 %144
  %146 = load ptr, ptr %2, align 8, !tbaa !38
  %147 = getelementptr inbounds nuw %struct.H5C_t, ptr %146, i32 0, i32 49
  store ptr %145, ptr %147, align 8, !tbaa !84
  %148 = load ptr, ptr %2, align 8, !tbaa !38
  %149 = getelementptr inbounds nuw %struct.H5C_t, ptr %148, i32 0, i32 67
  %150 = load i32, ptr %3, align 4, !tbaa !40
  %151 = sext i32 %150 to i64
  %152 = getelementptr inbounds [10 x %struct.H5C_cache_entry_t], ptr %149, i64 0, i64 %151
  %153 = load ptr, ptr %2, align 8, !tbaa !38
  %154 = getelementptr inbounds nuw %struct.H5C_t, ptr %153, i32 0, i32 50
  store ptr %152, ptr %154, align 8, !tbaa !85
  br label %181

155:                                              ; preds = %131
  %156 = load ptr, ptr %2, align 8, !tbaa !38
  %157 = getelementptr inbounds nuw %struct.H5C_t, ptr %156, i32 0, i32 67
  %158 = load i32, ptr %3, align 4, !tbaa !40
  %159 = sext i32 %158 to i64
  %160 = getelementptr inbounds [10 x %struct.H5C_cache_entry_t], ptr %157, i64 0, i64 %159
  %161 = load ptr, ptr %2, align 8, !tbaa !38
  %162 = getelementptr inbounds nuw %struct.H5C_t, ptr %161, i32 0, i32 49
  %163 = load ptr, ptr %162, align 8, !tbaa !84
  %164 = getelementptr inbounds nuw %struct.H5C_cache_entry_t, ptr %163, i32 0, i32 30
  store ptr %160, ptr %164, align 8, !tbaa !86
  %165 = load ptr, ptr %2, align 8, !tbaa !38
  %166 = getelementptr inbounds nuw %struct.H5C_t, ptr %165, i32 0, i32 49
  %167 = load ptr, ptr %166, align 8, !tbaa !84
  %168 = load ptr, ptr %2, align 8, !tbaa !38
  %169 = getelementptr inbounds nuw %struct.H5C_t, ptr %168, i32 0, i32 67
  %170 = load i32, ptr %3, align 4, !tbaa !40
  %171 = sext i32 %170 to i64
  %172 = getelementptr inbounds [10 x %struct.H5C_cache_entry_t], ptr %169, i64 0, i64 %171
  %173 = getelementptr inbounds nuw %struct.H5C_cache_entry_t, ptr %172, i32 0, i32 29
  store ptr %167, ptr %173, align 8, !tbaa !91
  %174 = load ptr, ptr %2, align 8, !tbaa !38
  %175 = getelementptr inbounds nuw %struct.H5C_t, ptr %174, i32 0, i32 67
  %176 = load i32, ptr %3, align 4, !tbaa !40
  %177 = sext i32 %176 to i64
  %178 = getelementptr inbounds [10 x %struct.H5C_cache_entry_t], ptr %175, i64 0, i64 %177
  %179 = load ptr, ptr %2, align 8, !tbaa !38
  %180 = getelementptr inbounds nuw %struct.H5C_t, ptr %179, i32 0, i32 49
  store ptr %178, ptr %180, align 8, !tbaa !84
  br label %181

181:                                              ; preds = %155, %140
  %182 = load ptr, ptr %2, align 8, !tbaa !38
  %183 = getelementptr inbounds nuw %struct.H5C_t, ptr %182, i32 0, i32 47
  %184 = load i32, ptr %183, align 8, !tbaa !92
  %185 = add i32 %184, 1
  store i32 %185, ptr %183, align 8, !tbaa !92
  %186 = load ptr, ptr %2, align 8, !tbaa !38
  %187 = getelementptr inbounds nuw %struct.H5C_t, ptr %186, i32 0, i32 67
  %188 = load i32, ptr %3, align 4, !tbaa !40
  %189 = sext i32 %188 to i64
  %190 = getelementptr inbounds [10 x %struct.H5C_cache_entry_t], ptr %187, i64 0, i64 %189
  %191 = getelementptr inbounds nuw %struct.H5C_cache_entry_t, ptr %190, i32 0, i32 2
  %192 = load i64, ptr %191, align 8, !tbaa !93
  %193 = load ptr, ptr %2, align 8, !tbaa !38
  %194 = getelementptr inbounds nuw %struct.H5C_t, ptr %193, i32 0, i32 48
  %195 = load i64, ptr %194, align 8, !tbaa !94
  %196 = add i64 %195, %192
  store i64 %196, ptr %194, align 8, !tbaa !94
  %197 = load ptr, ptr %2, align 8, !tbaa !38
  %198 = getelementptr inbounds nuw %struct.H5C_t, ptr %197, i32 0, i32 61
  %199 = load i32, ptr %198, align 8, !tbaa !64
  %200 = add nsw i32 %199, 1
  store i32 %200, ptr %198, align 8, !tbaa !64
  br label %201

201:                                              ; preds = %181, %126, %82, %43
  br label %202

202:                                              ; preds = %201, %12
  %203 = load i32, ptr %4, align 4, !tbaa !40
  call void @llvm.lifetime.end.p0(i64 1, ptr %5) #4
  call void @llvm.lifetime.end.p0(i64 4, ptr %4) #4
  call void @llvm.lifetime.end.p0(i64 4, ptr %3) #4
  ret i32 %203
}