; Function Attrs: nounwind uwtable
define internal fastcc range(i32 -1, 1) i32 @H5C__autoadjust__ageout__insert_new_marker(ptr noundef %0) unnamed_addr #0 {
  %2 = load i8, ptr @H5C_init_g, align 1, !tbaa !38, !range !39, !noundef !40
  %3 = trunc nuw i8 %2 to i1
  %4 = load i8, ptr @H5_libterm_g, align 1, !range !39
  %5 = trunc nuw i8 %4 to i1
  %6 = xor i1 %5, true
  %7 = select i1 %3, i1 true, i1 %6
  br i1 %7, label %8, label %71, !prof !41

8:                                                ; preds = %1
  %9 = getelementptr inbounds nuw i8, ptr %0, i64 525048
  %10 = load i32, ptr %9, align 8, !tbaa !63
  %11 = getelementptr inbounds nuw i8, ptr %0, i64 525032
  %12 = load i32, ptr %11, align 8, !tbaa !64
  %.not = icmp slt i32 %10, %12
  br i1 %.not, label %.preheader, label %14

.preheader:                                       ; preds = %8
  %13 = getelementptr inbounds nuw i8, ptr %0, i64 525052
  br label %18

14:                                               ; preds = %8
  %15 = load i64, ptr @H5E_CACHE_g, align 8, !tbaa !36
  %16 = load i64, ptr @H5E_SYSTEM_g, align 8, !tbaa !36
  %17 = tail call i32 (ptr, ptr, i32, i64, i64, ptr, ...) @H5E_printf_stack(ptr noundef nonnull @.str, ptr noundef nonnull @__func__.H5C__autoadjust__ageout__insert_new_marker, i32 noundef 688, i64 noundef %15, i64 noundef %16, ptr noundef nonnull @.str.30) #5
  br label %71

18:                                               ; preds = %18, %.preheader
  %indvars.iv = phi i64 [ %indvars.iv.next, %18 ], [ 0, %.preheader ]
  %19 = getelementptr inbounds nuw [10 x i8], ptr %13, i64 0, i64 %indvars.iv
  %20 = load i8, ptr %19, align 1, !tbaa !38, !range !39, !noundef !40
  %21 = trunc nuw i8 %20 to i1
  %22 = icmp samesign ult i64 %indvars.iv, 10
  %23 = select i1 %21, i1 %22, i1 false
  %indvars.iv.next = add nuw nsw i64 %indvars.iv, 1
  br i1 %23, label %18, label %24, !llvm.loop !79

24:                                               ; preds = %18
  %25 = icmp samesign ugt i64 %indvars.iv, 9
  br i1 %25, label %26, label %30

26:                                               ; preds = %24
  %27 = load i64, ptr @H5E_CACHE_g, align 8, !tbaa !36
  %28 = load i64, ptr @H5E_SYSTEM_g, align 8, !tbaa !36
  %29 = tail call i32 (ptr, ptr, i32, i64, i64, ptr, ...) @H5E_printf_stack(ptr noundef nonnull @.str, ptr noundef nonnull @__func__.H5C__autoadjust__ageout__insert_new_marker, i32 noundef 695, i64 noundef %27, i64 noundef %28, ptr noundef nonnull @.str.31) #5
  br label %71

30:                                               ; preds = %24
  %31 = getelementptr inbounds nuw [10 x i8], ptr %13, i64 0, i64 %indvars.iv
  %32 = trunc nuw nsw i64 %indvars.iv to i32
  store i8 1, ptr %31, align 1, !tbaa !38
  %33 = getelementptr inbounds nuw i8, ptr %0, i64 525112
  %34 = load i32, ptr %33, align 8, !tbaa !81
  %35 = add nsw i32 %34, 1
  %36 = srem i32 %35, 11
  store i32 %36, ptr %33, align 8, !tbaa !81
  %37 = getelementptr inbounds nuw i8, ptr %0, i64 525064
  %38 = sext i32 %36 to i64
  %39 = getelementptr inbounds [11 x i32], ptr %37, i64 0, i64 %38
  store i32 %32, ptr %39, align 4, !tbaa !37
  %40 = getelementptr inbounds nuw i8, ptr %0, i64 525116
  %41 = load i32, ptr %40, align 4, !tbaa !82
  %42 = icmp sgt i32 %41, 9
  br i1 %42, label %43, label %47

43:                                               ; preds = %30
  %44 = load i64, ptr @H5E_CACHE_g, align 8, !tbaa !36
  %45 = load i64, ptr @H5E_SYSTEM_g, align 8, !tbaa !36
  %46 = tail call i32 (ptr, ptr, i32, i64, i64, ptr, ...) @H5E_printf_stack(ptr noundef nonnull @.str, ptr noundef nonnull @__func__.H5C__autoadjust__ageout__insert_new_marker, i32 noundef 707, i64 noundef %44, i64 noundef %45, ptr noundef nonnull @.str.29) #5
  br label %71

47:                                               ; preds = %30
  %48 = add nsw i32 %41, 1
  store i32 %48, ptr %40, align 4, !tbaa !82
  %49 = getelementptr inbounds nuw i8, ptr %0, i64 524824
  %50 = load ptr, ptr %49, align 8, !tbaa !83
  %51 = icmp eq ptr %50, null
  %52 = getelementptr inbounds nuw i8, ptr %0, i64 525120
  %53 = getelementptr inbounds nuw [10 x %struct.H5C_cache_entry_t], ptr %52, i64 0, i64 %indvars.iv
  br i1 %51, label %54, label %56

54:                                               ; preds = %47
  %55 = getelementptr inbounds nuw i8, ptr %0, i64 524832
  store ptr %53, ptr %55, align 8, !tbaa !84
  br label %59

56:                                               ; preds = %47
  %57 = getelementptr inbounds nuw i8, ptr %50, i64 144
  store ptr %53, ptr %57, align 8, !tbaa !85
  %58 = getelementptr inbounds nuw i8, ptr %53, i64 136
  store ptr %50, ptr %58, align 8, !tbaa !90
  br label %59

59:                                               ; preds = %56, %54
  store ptr %53, ptr %49, align 8, !tbaa !83
  %60 = getelementptr inbounds nuw i8, ptr %0, i64 524808
  %61 = load i32, ptr %60, align 8, !tbaa !91
  %62 = add i32 %61, 1
  store i32 %62, ptr %60, align 8, !tbaa !91
  %.idx = mul nuw nsw i64 %indvars.iv, 248
  %63 = getelementptr i8, ptr %0, i64 525136
  %64 = getelementptr i8, ptr %63, i64 %.idx
  %65 = load i64, ptr %64, align 8, !tbaa !92
  %66 = getelementptr inbounds nuw i8, ptr %0, i64 524816
  %67 = load i64, ptr %66, align 8, !tbaa !93
  %68 = add i64 %67, %65
  store i64 %68, ptr %66, align 8, !tbaa !93
  %69 = load i32, ptr %9, align 8, !tbaa !63
  %70 = add nsw i32 %69, 1
  store i32 %70, ptr %9, align 8, !tbaa !63
  br label %71

71:                                               ; preds = %14, %26, %43, %59, %1
  %.0 = phi i32 [ -1, %14 ], [ -1, %26 ], [ -1, %43 ], [ 0, %59 ], [ 0, %1 ]
  ret i32 %.0
}